target datalayout = "e-m:e-p270:32:32-p271:32:32-p272:64:64-i64:64-i128:128-f80:128-n8:16:32:64-S128"
target triple = "x86_64-pc-linux-gnu"

%struct.DdManager = type { %struct.DdNode, ptr, ptr, ptr, ptr, ptr, ptr, ptr, i32, i32, double, double, double, i32, i32, i32, i32, i32, i32, ptr, ptr, %struct.DdSubtable, i32, i32, i32, i32, i32, i32, i32, double, i32, i32, i32, ptr, i64, double, i32, ptr, ptr, ptr, ptr, ptr, ptr, ptr, i32, ptr, ptr, ptr, ptr, ptr, ptr, i32, i32, i32, double, i32, i32, i32, i32, double, double, i32, i32, i32, i32, i32, i32, i32, i32, i32, ptr, ptr, i32, i32, i32, i32, i32, i32, ptr, ptr, ptr, ptr, ptr, ptr, ptr, ptr, i32, i64, i64, i64, i32, i64, i64, double, double, double, double, double, double, i32, ptr, ptr, i64 }
%struct.DdNode = type { i32, i32, ptr, %union.anon, i64 }
%union.anon = type { %struct.DdChildren }
%struct.DdChildren = type { ptr, ptr }
%struct.DdSubtable = type { ptr, i32, i32, i32, i32, i32, i32, i32, i32, i32, i32, i32 }
%struct.Move = type { i32, i32, i32, i32, ptr }

@.str = private unnamed_addr constant [61 x i8] c"Change in size after identity transformation! From %d to %d\0A\00", align 1

; Function Attrs: nounwind uwtable
define internal ptr @cuddZddLinearDown(ptr noundef %0, i32 noundef %1, i32 noundef %2, ptr noundef %3) #0 {
  %5 = alloca ptr, align 8
  %6 = alloca ptr, align 8
  %7 = alloca i32, align 4
  %8 = alloca i32, align 4
  %9 = alloca ptr, align 8
  %10 = alloca ptr, align 8
  %11 = alloca ptr, align 8
  %12 = alloca i32, align 4
  %13 = alloca i32, align 4
  %14 = alloca i32, align 4
  %15 = alloca i32, align 4
  %16 = alloca i32, align 4
  store ptr %0, ptr %6, align 8, !tbaa !3
  store i32 %1, ptr %7, align 4, !tbaa !8
  store i32 %2, ptr %8, align 4, !tbaa !8
  store ptr %3, ptr %9, align 8, !tbaa !40
  call void @llvm.lifetime.start.p0(i64 8, ptr %10) #5
  call void @llvm.lifetime.start.p0(i64 8, ptr %11) #5
  call void @llvm.lifetime.start.p0(i64 4, ptr %12) #5
  call void @llvm.lifetime.start.p0(i64 4, ptr %13) #5
  call void @llvm.lifetime.start.p0(i64 4, ptr %14) #5
  call void @llvm.lifetime.start.p0(i64 4, ptr %15) #5
  %17 = load ptr, ptr %9, align 8, !tbaa !40
  store ptr %17, ptr %10, align 8, !tbaa !40
  %18 = load ptr, ptr %6, align 8, !tbaa !3
  %19 = getelementptr inbounds nuw %struct.DdManager, ptr %18, i32 0, i32 24
  %20 = load i32, ptr %19, align 8, !tbaa !39
  store i32 %20, ptr %15, align 4, !tbaa !8
  %21 = load ptr, ptr %6, align 8, !tbaa !3
  %22 = load i32, ptr %7, align 4, !tbaa !8
  %23 = call i32 @cuddZddNextHigh(ptr noundef %21, i32 noundef %22)
  store i32 %23, ptr %12, align 4, !tbaa !8
  br label %24

24:                                               ; preds = %110, %4
  %25 = load i32, ptr %12, align 4, !tbaa !8
  %26 = load i32, ptr %8, align 4, !tbaa !8
  %27 = icmp sle i32 %25, %26
  br i1 %27, label %28, label %115

28:                                               ; preds = %24
  %29 = load ptr, ptr %6, align 8, !tbaa !3
  %30 = load i32, ptr %7, align 4, !tbaa !8
  %31 = load i32, ptr %12, align 4, !tbaa !8
  %32 = call i32 @cuddZddSwapInPlace(ptr noundef %29, i32 noundef %30, i32 noundef %31)
  store i32 %32, ptr %13, align 4, !tbaa !8
  %33 = load i32, ptr %13, align 4, !tbaa !8
  %34 = icmp eq i32 %33, 0
  br i1 %34, label %35, label %36

35:                                               ; preds = %28
  br label %117

36:                                               ; preds = %28
  %37 = load ptr, ptr %6, align 8, !tbaa !3
  %38 = load i32, ptr %7, align 4, !tbaa !8
  %39 = load i32, ptr %12, align 4, !tbaa !8
  %40 = call i32 @cuddZddLinearInPlace(ptr noundef %37, i32 noundef %38, i32 noundef %39)
  store i32 %40, ptr %14, align 4, !tbaa !8
  %41 = load i32, ptr %14, align 4, !tbaa !8
  %42 = icmp eq i32 %41, 0
  br i1 %42, label %43, label %44

43:                                               ; preds = %36
  br label %117

44:                                               ; preds = %36
  %45 = load ptr, ptr %6, align 8, !tbaa !3
  %46 = call ptr @cuddDynamicAllocNode(ptr noundef %45)
  store ptr %46, ptr %11, align 8, !tbaa !40
  %47 = load ptr, ptr %11, align 8, !tbaa !40
  %48 = icmp eq ptr %47, null
  br i1 %48, label %49, label %50

49:                                               ; preds = %44
  br label %117

50:                                               ; preds = %44
  %51 = load i32, ptr %7, align 4, !tbaa !8
  %52 = load ptr, ptr %11, align 8, !tbaa !40
  %53 = getelementptr inbounds nuw %struct.Move, ptr %52, i32 0, i32 0
  store i32 %51, ptr %53, align 8, !tbaa !51
  %54 = load i32, ptr %12, align 4, !tbaa !8
  %55 = load ptr, ptr %11, align 8, !tbaa !40
  %56 = getelementptr inbounds nuw %struct.Move, ptr %55, i32 0, i32 1
  store i32 %54, ptr %56, align 4, !tbaa !52
  %57 = load ptr, ptr %10, align 8, !tbaa !40
  %58 = load ptr, ptr %11, align 8, !tbaa !40
  %59 = getelementptr inbounds nuw %struct.Move, ptr %58, i32 0, i32 4
  store ptr %57, ptr %59, align 8, !tbaa !42
  %60 = load ptr, ptr %11, align 8, !tbaa !40
  store ptr %60, ptr %10, align 8, !tbaa !40
  %61 = load ptr, ptr %11, align 8, !tbaa !40
  %62 = getelementptr inbounds nuw %struct.Move, ptr %61, i32 0, i32 2
  store i32 0, ptr %62, align 8, !tbaa !53
  %63 = load i32, ptr %14, align 4, !tbaa !8
  %64 = load i32, ptr %13, align 4, !tbaa !8
  %65 = icmp sgt i32 %63, %64
  br i1 %65, label %66, label %86

66:                                               ; preds = %50
  %67 = load ptr, ptr %6, align 8, !tbaa !3
  %68 = load i32, ptr %7, align 4, !tbaa !8
  %69 = load i32, ptr %12, align 4, !tbaa !8
  %70 = call i32 @cuddZddLinearInPlace(ptr noundef %67, i32 noundef %68, i32 noundef %69)
  store i32 %70, ptr %14, align 4, !tbaa !8
  %71 = load i32, ptr %14, align 4, !tbaa !8
  %72 = icmp eq i32 %71, 0
  br i1 %72, label %73, label %74

73:                                               ; preds = %66
  br label %117

74:                                               ; preds = %66
  %75 = load i32, ptr %14, align 4, !tbaa !8
  %76 = load i32, ptr %13, align 4, !tbaa !8
  %77 = icmp ne i32 %75, %76
  br i1 %77, label %78, label %85

78:                                               ; preds = %74
  %79 = load ptr, ptr %6, align 8, !tbaa !3
  %80 = getelementptr inbounds nuw %struct.DdManager, ptr %79, i32 0, i32 85
  %81 = load ptr, ptr %80, align 8, !tbaa !54
  %82 = load i32, ptr %13, align 4, !tbaa !8
  %83 = load i32, ptr %14, align 4, !tbaa !8
  %84 = call i32 (ptr, ptr, ...) @fprintf(ptr noundef %81, ptr noundef @.str, i32 noundef %82, i32 noundef %83) #5
  br label %85

85:                                               ; preds = %78, %74
  br label %90

86:                                               ; preds = %50
  %87 = load i32, ptr %14, align 4, !tbaa !8
  store i32 %87, ptr %13, align 4, !tbaa !8
  %88 = load ptr, ptr %11, align 8, !tbaa !40
  %89 = getelementptr inbounds nuw %struct.Move, ptr %88, i32 0, i32 2
  store i32 1, ptr %89, align 8, !tbaa !53
  br label %90

90:                                               ; preds = %86, %85
  %91 = load i32, ptr %13, align 4, !tbaa !8
  %92 = load ptr, ptr %11, align 8, !tbaa !40
  %93 = getelementptr inbounds nuw %struct.Move, ptr %92, i32 0, i32 3
  store i32 %91, ptr %93, align 4, !tbaa !55
  %94 = load i32, ptr %13, align 4, !tbaa !8
  %95 = sitofp i32 %94 to double
  %96 = load i32, ptr %15, align 4, !tbaa !8
  %97 = sitofp i32 %96 to double
  %98 = load ptr, ptr %6, align 8, !tbaa !3
  %99 = getelementptr inbounds nuw %struct.DdManager, ptr %98, i32 0, i32 59
  %100 = load double, ptr %99, align 8, !tbaa !56
  %101 = fmul double %97, %100
  %102 = fcmp ogt double %95, %101
  br i1 %102, label %103, label %104

103:                                              ; preds = %90
  br label %115

104:                                              ; preds = %90
  %105 = load i32, ptr %13, align 4, !tbaa !8
  %106 = load i32, ptr %15, align 4, !tbaa !8
  %107 = icmp slt i32 %105, %106
  br i1 %107, label %108, label %110

108:                                              ; preds = %104
  %109 = load i32, ptr %13, align 4, !tbaa !8
  store i32 %109, ptr %15, align 4, !tbaa !8
  br label %110

110:                                              ; preds = %108, %104
  %111 = load i32, ptr %12, align 4, !tbaa !8
  store i32 %111, ptr %7, align 4, !tbaa !8
  %112 = load ptr, ptr %6, align 8, !tbaa !3
  %113 = load i32, ptr %7, align 4, !tbaa !8
  %114 = call i32 @cuddZddNextHigh(ptr noundef %112, i32 noundef %113)
  store i32 %114, ptr %12, align 4, !tbaa !8
  br label %24, !llvm.loop !57

115:                                              ; preds = %103, %24
  %116 = load ptr, ptr %10, align 8, !tbaa !40
  store ptr %116, ptr %5, align 8
  store i32 1, ptr %16, align 4
  br label %137

117:                                              ; preds = %73, %49, %43, %35
  br label %118

118:                                              ; preds = %121, %117
  %119 = load ptr, ptr %10, align 8, !tbaa !40
  %120 = icmp ne ptr %119, null
  br i1 %120, label %121, label %136

121:                                              ; preds = %118
  %122 = load ptr, ptr %10, align 8, !tbaa !40
  %123 = getelementptr inbounds nuw %struct.Move, ptr %122, i32 0, i32 4
  %124 = load ptr, ptr %123, align 8, !tbaa !42
  store ptr %124, ptr %11, align 8, !tbaa !40
  %125 = load ptr, ptr %10, align 8, !tbaa !40
  %126 = getelementptr inbounds nuw %struct.DdNode, ptr %125, i32 0, i32 1
  store i32 0, ptr %126, align 4, !tbaa !44
  %127 = load ptr, ptr %6, align 8, !tbaa !3
  %128 = getelementptr inbounds nuw %struct.DdManager, ptr %127, i32 0, i32 48
  %129 = load ptr, ptr %128, align 8, !tbaa !45
  %130 = load ptr, ptr %10, align 8, !tbaa !40
  %131 = getelementptr inbounds nuw %struct.DdNode, ptr %130, i32 0, i32 2
  store ptr %129, ptr %131, align 8, !tbaa !46
  %132 = load ptr, ptr %10, align 8, !tbaa !40
  %133 = load ptr, ptr %6, align 8, !tbaa !3
  %134 = getelementptr inbounds nuw %struct.DdManager, ptr %133, i32 0, i32 48
  store ptr %132, ptr %134, align 8, !tbaa !45
  %135 = load ptr, ptr %11, align 8, !tbaa !40
  store ptr %135, ptr %10, align 8, !tbaa !40
  br label %118, !llvm.loop !58

136:                                              ; preds = %118
  store ptr inttoptr (i64 -1 to ptr), ptr %5, align 8
  store i32 1, ptr %16, align 4
  br label %137

137:                                              ; preds = %136, %115
  call void @llvm.lifetime.end.p0(i64 4, ptr %15) #5
  call void @llvm.lifetime.end.p0(i64 4, ptr %14) #5
  call void @llvm.lifetime.end.p0(i64 4, ptr %13) #5
  call void @llvm.lifetime.end.p0(i64 4, ptr %12) #5
  call void @llvm.lifetime.end.p0(i64 8, ptr %11) #5
  call void @llvm.lifetime.end.p0(i64 8, ptr %10) #5
  %138 = load ptr, ptr %5, align 8
  ret ptr %138
}