; Function Attrs: nounwind uwtable
define internal fastcc ptr @cuddZddLinearDown(ptr noundef %0, i32 noundef %1, i32 noundef %2, ptr noundef %3) unnamed_addr #0 {
  %5 = getelementptr inbounds nuw i8, ptr %0, i64 232
  %6 = load i32, ptr %5, align 8, !tbaa !36
  %7 = tail call i32 @cuddZddNextHigh(ptr noundef %0, i32 noundef %1) #9
  %.not70 = icmp sgt i32 %7, %2
  br i1 %.not70, label %.loopexit, label %.lr.ph

.lr.ph:                                           ; preds = %4
  %8 = getelementptr inbounds nuw i8, ptr %0, i64 616
  %9 = getelementptr inbounds nuw i8, ptr %0, i64 464
  br label %10

10:                                               ; preds = %.lr.ph, %39
  %.074 = phi i32 [ %6, %.lr.ph ], [ %spec.select, %39 ]
  %.05873 = phi i32 [ %7, %.lr.ph ], [ %40, %39 ]
  %.05972 = phi ptr [ %3, %.lr.ph ], [ %17, %39 ]
  %.06271 = phi i32 [ %1, %.lr.ph ], [ %.05873, %39 ]
  %11 = tail call i32 @cuddZddSwapInPlace(ptr noundef nonnull %0, i32 noundef %.06271, i32 noundef %.05873) #9
  %12 = icmp eq i32 %11, 0
  br i1 %12, label %41, label %13

13:                                               ; preds = %10
  %14 = tail call fastcc i32 @cuddZddLinearInPlace(ptr noundef nonnull %0, i32 noundef %.06271, i32 noundef %.05873)
  %15 = icmp eq i32 %14, 0
  br i1 %15, label %41, label %16

16:                                               ; preds = %13
  %17 = tail call ptr @cuddDynamicAllocNode(ptr noundef nonnull %0) #9
  %18 = icmp eq ptr %17, null
  br i1 %18, label %41, label %19

19:                                               ; preds = %16
  store i32 %.06271, ptr %17, align 8, !tbaa !43
  %20 = getelementptr inbounds nuw i8, ptr %17, i64 4
  store i32 %.05873, ptr %20, align 4, !tbaa !44
  %21 = getelementptr inbounds nuw i8, ptr %17, i64 16
  store ptr %.05972, ptr %21, align 8, !tbaa !40
  %22 = getelementptr inbounds nuw i8, ptr %17, i64 8
  store i32 0, ptr %22, align 8, !tbaa !42
  %23 = icmp sgt i32 %14, %11
  br i1 %23, label %24, label %31

24:                                               ; preds = %19
  %25 = tail call fastcc i32 @cuddZddLinearInPlace(ptr noundef nonnull %0, i32 noundef %.06271, i32 noundef %.05873)
  %26 = icmp eq i32 %25, 0
  br i1 %26, label %.lr.ph79, label %27

27:                                               ; preds = %24
  %.not67 = icmp eq i32 %25, %11
  br i1 %.not67, label %32, label %28

28:                                               ; preds = %27
  %29 = load ptr, ptr %8, align 8, !tbaa !52
  %30 = tail call i32 (ptr, ptr, ...) @fprintf(ptr noundef %29, ptr noundef nonnull @.str, i32 noundef %11, i32 noundef %25) #9
  br label %32

31:                                               ; preds = %19
  store i32 1, ptr %22, align 8, !tbaa !42
  br label %32

32:                                               ; preds = %27, %28, %31
  %.057 = phi i32 [ %11, %28 ], [ %11, %27 ], [ %14, %31 ]
  %33 = getelementptr inbounds nuw i8, ptr %17, i64 12
  store i32 %.057, ptr %33, align 4, !tbaa !37
  %34 = sitofp i32 %.057 to double
  %35 = sitofp i32 %.074 to double
  %36 = load double, ptr %9, align 8, !tbaa !53
  %37 = fmul double %36, %35
  %38 = fcmp olt double %37, %34
  br i1 %38, label %.loopexit, label %39

39:                                               ; preds = %32
  %spec.select = tail call i32 @llvm.smin.i32(i32 %.057, i32 %.074)
  %40 = tail call i32 @cuddZddNextHigh(ptr noundef nonnull %0, i32 noundef %.05873) #9
  %.not = icmp sgt i32 %40, %2
  br i1 %.not, label %.loopexit, label %10, !llvm.loop !54

41:                                               ; preds = %16, %13, %10
  %.not6877 = icmp eq ptr %.05972, null
  br i1 %.not6877, label %.loopexit, label %.lr.ph79

.lr.ph79:                                         ; preds = %24, %41
  %.282 = phi ptr [ %.05972, %41 ], [ %17, %24 ]
  %42 = getelementptr inbounds nuw i8, ptr %0, i64 400
  %.promoted = load ptr, ptr %42, align 8, !tbaa !46
  br label %43

43:                                               ; preds = %.lr.ph79, %43
  %44 = phi ptr [ %.promoted, %.lr.ph79 ], [ %.378, %43 ]
  %.378 = phi ptr [ %.282, %.lr.ph79 ], [ %46, %43 ]
  %45 = getelementptr inbounds nuw i8, ptr %.378, i64 16
  %46 = load ptr, ptr %45, align 8, !tbaa !40
  %47 = getelementptr inbounds nuw i8, ptr %.378, i64 4
  store i32 0, ptr %47, align 4, !tbaa !47
  %48 = getelementptr inbounds nuw i8, ptr %.378, i64 8
  store ptr %44, ptr %48, align 8, !tbaa !48
  %.not68 = icmp eq ptr %46, null
  br i1 %.not68, label %..loopexit_crit_edge, label %43, !llvm.loop !55

..loopexit_crit_edge:                             ; preds = %43
  store ptr %.378, ptr %42, align 8, !tbaa !46
  br label %.loopexit

.loopexit:                                        ; preds = %32, %39, %4, %41, %..loopexit_crit_edge
  %.061 = phi ptr [ inttoptr (i64 -1 to ptr), %..loopexit_crit_edge ], [ inttoptr (i64 -1 to ptr), %41 ], [ %3, %4 ], [ %17, %39 ], [ %17, %32 ]
  ret ptr %.061
}